target datalayout = "e-m:e-p270:32:32-p271:32:32-p272:64:64-i64:64-i128:128-f80:128-n8:16:32:64-S128"
target triple = "x86_64-pc-linux-gnu"

%struct.lua_State = type { %struct.GCRef, i8, i8, i8, i8, %struct.MRef, %struct.GCRef, ptr, ptr, %struct.MRef, %struct.MRef, %struct.GCRef, %struct.GCRef, ptr, i32 }
%struct.MRef = type { i64 }
%struct.GCRef = type { i64 }
%union.TValue = type { i64 }
%struct.GG_State = type { %struct.lua_State, %struct.global_State, %struct.jit_State, [64 x i16], [243 x ptr], [57 x i32] }
%struct.global_State = type { ptr, ptr, %struct.GCState, %struct.GCstr, i8, i8, i8, i8, %struct.StrInternState, i32, %struct.GCRef, %struct.SBuf, %union.TValue, %union.TValue, %struct.Node, %union.TValue, %struct.GCupval, i32, i32, ptr, ptr, ptr, i32, i32, %struct.GCRef, %struct.MRef, %struct.MRef, %struct.PRNGState, [39 x %struct.GCRef] }
%struct.GCState = type { i64, i64, i8, i8, i8, i8, i32, %struct.GCRef, %struct.MRef, %struct.GCRef, %struct.GCRef, %struct.GCRef, %struct.GCRef, i64, i64, i32, i32, %struct.MRef }
%struct.GCstr = type { %struct.GCRef, i8, i8, i8, i8, i32, i32, i32 }
%struct.StrInternState = type { ptr, i32, i32, i32, i8, i8, i8, i8, i64 }
%struct.SBuf = type { ptr, ptr, ptr, %struct.MRef }
%struct.Node = type { %union.TValue, %union.TValue, %struct.MRef }
%struct.GCupval = type { %struct.GCRef, i8, i8, i8, i8, %union.anon, %struct.MRef, i32 }
%union.anon = type { %struct.anon.1 }
%struct.anon.1 = type { %struct.GCRef, %struct.GCRef }
%struct.PRNGState = type { [4 x i64] }
%struct.jit_State = type { %struct.GCtrace, ptr, ptr, ptr, ptr, ptr, ptr, i32, i32, i32, i8, i8, %struct.IRType1, i8, %struct.FoldState, ptr, i32, i32, i32, i32, i32, i32, i32, [1 x i32], [5 x %union.TValue], [3 x %union.TValue], ptr, i32, i32, i32, i32, ptr, ptr, i32, i32, i8, ptr, i32, i32, i16, [101 x i16], [258 x i32], [15 x i32], [16 x ptr], [64 x %struct.HotPenalty], i32, [16 x %struct.BPropEntry], i32, %struct.ScEvEntry, ptr, i32, i32, i32, ptr, i32, i32, ptr, ptr, ptr, i64, i64, %union.TValue, ptr, i32, i32 }
%struct.GCtrace = type { %struct.GCRef, i8, i8, i16, i32, i32, %struct.GCRef, ptr, i32, i32, ptr, ptr, %struct.GCRef, %struct.MRef, i32, i32, ptr, i32, i16, i16, i16, i16, i16, i16, i16, i8, i8, i8, i8 }
%struct.IRType1 = type { i8 }
%struct.FoldState = type { %union.IRIns, [2 x %union.IRIns], [2 x %union.IRIns] }
%union.IRIns = type { %struct.GCRef }
%struct.HotPenalty = type { %struct.MRef, i16, i16 }
%struct.BPropEntry = type { i16, i16, i32 }
%struct.ScEvEntry = type { %struct.MRef, i16, i16, i16, i16, %struct.IRType1, i8 }
%struct.anon.3 = type { i32, %struct.IRType1, i8, i8, i8 }
%struct.anon.2 = type { i16, i16, i16, i16 }

@lj_ir_mode = external hidden constant [102 x i8], align 16

; Function Attrs: alwaysinline nounwind uwtable
define internal void @setintV(ptr noundef %0, i32 noundef %1) #5 {
  %3 = alloca ptr, align 8
  %4 = alloca i32, align 4
  store ptr %0, ptr %3, align 8, !tbaa !56
  store i32 %1, ptr %4, align 4, !tbaa !35
  %5 = load i32, ptr %4, align 4, !tbaa !35
  %6 = sitofp i32 %5 to double
  %7 = load ptr, ptr %3, align 8, !tbaa !56
  store double %6, ptr %7, align 8, !tbaa !37
  ret void
}

; Function Attrs: nounwind uwtable
define internal ptr @jit_checktrace(ptr noundef %0) #0 {
  %2 = alloca ptr, align 8
  %3 = alloca ptr, align 8
  %4 = alloca i32, align 4
  %5 = alloca ptr, align 8
  %6 = alloca i32, align 4
  store ptr %0, ptr %3, align 8, !tbaa !4
  call void @llvm.lifetime.start.p0(i64 4, ptr %4) #9
  %7 = load ptr, ptr %3, align 8, !tbaa !4
  %8 = call i32 @lj_lib_checkint(ptr noundef %7, i32 noundef 1)
  store i32 %8, ptr %4, align 4, !tbaa !35
  call void @llvm.lifetime.start.p0(i64 8, ptr %5) #9
  %9 = load ptr, ptr %3, align 8, !tbaa !4
  %10 = getelementptr inbounds nuw %struct.lua_State, ptr %9, i32 0, i32 5
  %11 = getelementptr inbounds nuw %struct.MRef, ptr %10, i32 0, i32 0
  %12 = load i64, ptr %11, align 8, !tbaa !17
  %13 = inttoptr i64 %12 to ptr
  %14 = getelementptr inbounds i8, ptr %13, i64 -96
  %15 = getelementptr inbounds nuw %struct.GG_State, ptr %14, i32 0, i32 2
  store ptr %15, ptr %5, align 8, !tbaa !18
  %16 = load i32, ptr %4, align 4, !tbaa !35
  %17 = icmp ugt i32 %16, 0
  br i1 %17, label %18, label %34

18:                                               ; preds = %1
  %19 = load i32, ptr %4, align 4, !tbaa !35
  %20 = load ptr, ptr %5, align 8, !tbaa !18
  %21 = getelementptr inbounds nuw %struct.jit_State, ptr %20, i32 0, i32 38
  %22 = load i32, ptr %21, align 4, !tbaa !114
  %23 = icmp ult i32 %19, %22
  br i1 %23, label %24, label %34

24:                                               ; preds = %18
  %25 = load ptr, ptr %5, align 8, !tbaa !18
  %26 = getelementptr inbounds nuw %struct.jit_State, ptr %25, i32 0, i32 36
  %27 = load ptr, ptr %26, align 8, !tbaa !115
  %28 = load i32, ptr %4, align 4, !tbaa !35
  %29 = zext i32 %28 to i64
  %30 = getelementptr inbounds nuw %struct.GCRef, ptr %27, i64 %29
  %31 = getelementptr inbounds nuw %struct.GCRef, ptr %30, i32 0, i32 0
  %32 = load i64, ptr %31, align 8, !tbaa !84
  %33 = inttoptr i64 %32 to ptr
  store ptr %33, ptr %2, align 8
  store i32 1, ptr %6, align 4
  br label %35

34:                                               ; preds = %18, %1
  store ptr null, ptr %2, align 8
  store i32 1, ptr %6, align 4
  br label %35

35:                                               ; preds = %34, %24
  call void @llvm.lifetime.end.p0(i64 8, ptr %5) #9
  call void @llvm.lifetime.end.p0(i64 4, ptr %4) #9
  %36 = load ptr, ptr %2, align 8
  ret ptr %36
}

; Function Attrs: nounwind uwtable
define internal i32 @lj_cf_jit_util_traceir(ptr noundef %0) #0 {
  %2 = alloca i32, align 4
  %3 = alloca ptr, align 8
  %4 = alloca ptr, align 8
  %5 = alloca i32, align 4
  %6 = alloca ptr, align 8
  %7 = alloca i32, align 4
  %8 = alloca i32, align 4
  store ptr %0, ptr %3, align 8, !tbaa !4
  call void @llvm.lifetime.start.p0(i64 8, ptr %4) #9
  %9 = load ptr, ptr %3, align 8, !tbaa !4
  %10 = call ptr @jit_checktrace(ptr noundef %9)
  store ptr %10, ptr %4, align 8, !tbaa !85
  call void @llvm.lifetime.start.p0(i64 4, ptr %5) #9
  %11 = load ptr, ptr %3, align 8, !tbaa !4
  %12 = call i32 @lj_lib_checkint(ptr noundef %11, i32 noundef 2)
  %13 = add i32 %12, 32768
  store i32 %13, ptr %5, align 4, !tbaa !35
  %14 = load ptr, ptr %4, align 8, !tbaa !85
  %15 = icmp ne ptr %14, null
  br i1 %15, label %16, label %87

16:                                               ; preds = %1
  %17 = load i32, ptr %5, align 4, !tbaa !35
  %18 = icmp uge i32 %17, 32768
  br i1 %18, label %19, label %87

19:                                               ; preds = %16
  %20 = load i32, ptr %5, align 4, !tbaa !35
  %21 = load ptr, ptr %4, align 8, !tbaa !85
  %22 = getelementptr inbounds nuw %struct.GCtrace, ptr %21, i32 0, i32 4
  %23 = load i32, ptr %22, align 4, !tbaa !86
  %24 = icmp ult i32 %20, %23
  br i1 %24, label %25, label %87

25:                                               ; preds = %19
  call void @llvm.lifetime.start.p0(i64 8, ptr %6) #9
  %26 = load ptr, ptr %4, align 8, !tbaa !85
  %27 = getelementptr inbounds nuw %struct.GCtrace, ptr %26, i32 0, i32 7
  %28 = load ptr, ptr %27, align 8, !tbaa !91
  %29 = load i32, ptr %5, align 4, !tbaa !35
  %30 = zext i32 %29 to i64
  %31 = getelementptr inbounds nuw %union.IRIns, ptr %28, i64 %30
  store ptr %31, ptr %6, align 8, !tbaa !92
  call void @llvm.lifetime.start.p0(i64 4, ptr %7) #9
  %32 = load ptr, ptr %6, align 8, !tbaa !92
  %33 = getelementptr inbounds nuw %struct.anon.3, ptr %32, i32 0, i32 2
  %34 = load i8, ptr %33, align 1, !tbaa !37
  %35 = zext i8 %34 to i64
  %36 = getelementptr inbounds nuw [102 x i8], ptr @lj_ir_mode, i64 0, i64 %35
  %37 = load i8, ptr %36, align 1, !tbaa !37
  %38 = zext i8 %37 to i32
  store i32 %38, ptr %7, align 4, !tbaa !35
  %39 = load ptr, ptr %3, align 8, !tbaa !4
  %40 = getelementptr inbounds nuw %struct.lua_State, ptr %39, i32 0, i32 8
  %41 = load ptr, ptr %40, align 8, !tbaa !16
  %42 = getelementptr inbounds %union.TValue, ptr %41, i64 -2
  %43 = load i32, ptr %7, align 4, !tbaa !35
  call void @setintV(ptr noundef %42, i32 noundef %43)
  %44 = load ptr, ptr %3, align 8, !tbaa !4
  %45 = getelementptr inbounds nuw %struct.lua_State, ptr %44, i32 0, i32 8
  %46 = load ptr, ptr %45, align 8, !tbaa !16
  %47 = getelementptr inbounds %union.TValue, ptr %46, i64 -1
  %48 = load ptr, ptr %6, align 8, !tbaa !92
  %49 = getelementptr inbounds nuw %struct.anon.2, ptr %48, i32 0, i32 2
  %50 = load i16, ptr %49, align 4, !tbaa !37
  %51 = zext i16 %50 to i32
  call void @setintV(ptr noundef %47, i32 noundef %51)
  %52 = load ptr, ptr %3, align 8, !tbaa !4
  %53 = getelementptr inbounds nuw %struct.lua_State, ptr %52, i32 0, i32 8
  %54 = load ptr, ptr %53, align 8, !tbaa !16
  %55 = getelementptr inbounds nuw %union.TValue, ptr %54, i32 1
  store ptr %55, ptr %53, align 8, !tbaa !16
  %56 = load ptr, ptr %6, align 8, !tbaa !92
  %57 = getelementptr inbounds nuw %struct.anon.2, ptr %56, i32 0, i32 0
  %58 = load i16, ptr %57, align 8, !tbaa !37
  %59 = zext i16 %58 to i32
  %60 = load i32, ptr %7, align 4, !tbaa !35
  %61 = and i32 %60, 3
  %62 = icmp eq i32 %61, 0
  %63 = select i1 %62, i32 32768, i32 0
  %64 = sub nsw i32 %59, %63
  call void @setintV(ptr noundef %54, i32 noundef %64)
  %65 = load ptr, ptr %3, align 8, !tbaa !4
  %66 = getelementptr inbounds nuw %struct.lua_State, ptr %65, i32 0, i32 8
  %67 = load ptr, ptr %66, align 8, !tbaa !16
  %68 = getelementptr inbounds nuw %union.TValue, ptr %67, i32 1
  store ptr %68, ptr %66, align 8, !tbaa !16
  %69 = load ptr, ptr %6, align 8, !tbaa !92
  %70 = getelementptr inbounds nuw %struct.anon.2, ptr %69, i32 0, i32 1
  %71 = load i16, ptr %70, align 2, !tbaa !37
  %72 = zext i16 %71 to i32
  %73 = load i32, ptr %7, align 4, !tbaa !35
  %74 = ashr i32 %73, 2
  %75 = and i32 %74, 3
  %76 = icmp eq i32 %75, 0
  %77 = select i1 %76, i32 32768, i32 0
  %78 = sub nsw i32 %72, %77
  call void @setintV(ptr noundef %67, i32 noundef %78)
  %79 = load ptr, ptr %3, align 8, !tbaa !4
  %80 = getelementptr inbounds nuw %struct.lua_State, ptr %79, i32 0, i32 8
  %81 = load ptr, ptr %80, align 8, !tbaa !16
  %82 = getelementptr inbounds nuw %union.TValue, ptr %81, i32 1
  store ptr %82, ptr %80, align 8, !tbaa !16
  %83 = load ptr, ptr %6, align 8, !tbaa !92
  %84 = getelementptr inbounds nuw %struct.anon.2, ptr %83, i32 0, i32 3
  %85 = load i16, ptr %84, align 2, !tbaa !37
  %86 = zext i16 %85 to i32
  call void @setintV(ptr noundef %81, i32 noundef %86)
  store i32 5, ptr %2, align 4
  store i32 1, ptr %8, align 4
  call void @llvm.lifetime.end.p0(i64 4, ptr %7) #9
  call void @llvm.lifetime.end.p0(i64 8, ptr %6) #9
  br label %88

87:                                               ; preds = %19, %16, %1
  store i32 0, ptr %2, align 4
  store i32 1, ptr %8, align 4
  br label %88

88:                                               ; preds = %87, %25
  call void @llvm.lifetime.end.p0(i64 4, ptr %5) #9
  call void @llvm.lifetime.end.p0(i64 8, ptr %4) #9
  %89 = load i32, ptr %2, align 4
  ret i32 %89
}