; Function Attrs: nounwind uwtable
define internal range(i32 0, 6) i32 @lj_cf_jit_util_traceir(ptr noundef %0) #0 {
  %2 = tail call i32 @lj_lib_checkint(ptr noundef %0, i32 noundef 1) #8
  %3 = getelementptr inbounds nuw i8, ptr %0, i64 16
  %4 = load i64, ptr %3, align 8, !tbaa !4
  %5 = inttoptr i64 %4 to ptr
  %.not.i = icmp eq i32 %2, 0
  br i1 %.not.i, label %jit_checktrace.exit, label %6

6:                                                ; preds = %1
  %7 = getelementptr inbounds nuw i8, ptr %5, i64 1132
  %8 = load i32, ptr %7, align 4, !tbaa !71
  %9 = icmp ult i32 %2, %8
  br i1 %9, label %10, label %jit_checktrace.exit

10:                                               ; preds = %6
  %11 = getelementptr inbounds nuw i8, ptr %5, i64 1120
  %12 = load ptr, ptr %11, align 8, !tbaa !72
  %13 = zext i32 %2 to i64
  %14 = getelementptr inbounds nuw %struct.GCRef, ptr %12, i64 %13
  %15 = load i64, ptr %14, align 8, !tbaa !70
  %16 = inttoptr i64 %15 to ptr
  br label %jit_checktrace.exit

jit_checktrace.exit:                              ; preds = %1, %6, %10
  %.0.i = phi ptr [ %16, %10 ], [ null, %6 ], [ null, %1 ]
  %17 = tail call i32 @lj_lib_checkint(ptr noundef nonnull %0, i32 noundef 2) #8
  %18 = add i32 %17, 32768
  %19 = icmp ne ptr %.0.i, null
  %20 = icmp ult i32 %17, -32768
  %or.cond = select i1 %19, i1 %20, i1 false
  br i1 %or.cond, label %21, label %67

21:                                               ; preds = %jit_checktrace.exit
  %22 = getelementptr inbounds nuw i8, ptr %.0.i, i64 12
  %23 = load i32, ptr %22, align 4, !tbaa !73
  %24 = icmp ult i32 %18, %23
  br i1 %24, label %25, label %67

25:                                               ; preds = %21
  %26 = getelementptr inbounds nuw i8, ptr %.0.i, i64 32
  %27 = load ptr, ptr %26, align 8, !tbaa !79
  %28 = zext i32 %18 to i64
  %29 = getelementptr inbounds nuw %union.IRIns, ptr %27, i64 %28
  %30 = getelementptr inbounds nuw i8, ptr %29, i64 5
  %31 = load i8, ptr %30, align 1, !tbaa !34
  %32 = zext i8 %31 to i64
  %33 = getelementptr inbounds nuw [102 x i8], ptr @lj_ir_mode, i64 0, i64 %32
  %34 = load i8, ptr %33, align 1, !tbaa !34
  %35 = zext i8 %34 to i32
  %36 = getelementptr inbounds nuw i8, ptr %0, i64 40
  %37 = load ptr, ptr %36, align 8, !tbaa !32
  %38 = getelementptr inbounds i8, ptr %37, i64 -16
  %39 = uitofp i8 %34 to double
  store double %39, ptr %38, align 8, !tbaa !34
  %40 = load ptr, ptr %36, align 8, !tbaa !32
  %41 = getelementptr inbounds i8, ptr %40, i64 -8
  %42 = getelementptr inbounds nuw i8, ptr %29, i64 4
  %43 = load i16, ptr %42, align 4, !tbaa !34
  %44 = uitofp i16 %43 to double
  store double %44, ptr %41, align 8, !tbaa !34
  %45 = load ptr, ptr %36, align 8, !tbaa !32
  %46 = getelementptr inbounds nuw i8, ptr %45, i64 8
  store ptr %46, ptr %36, align 8, !tbaa !32
  %47 = load i16, ptr %29, align 8, !tbaa !34
  %48 = zext i16 %47 to i32
  %49 = and i32 %35, 3
  %50 = icmp eq i32 %49, 0
  %.neg = select i1 %50, i32 -32768, i32 0
  %51 = add nsw i32 %.neg, %48
  %52 = sitofp i32 %51 to double
  store double %52, ptr %45, align 8, !tbaa !34
  %53 = load ptr, ptr %36, align 8, !tbaa !32
  %54 = getelementptr inbounds nuw i8, ptr %53, i64 8
  store ptr %54, ptr %36, align 8, !tbaa !32
  %55 = getelementptr inbounds nuw i8, ptr %29, i64 2
  %56 = load i16, ptr %55, align 2, !tbaa !34
  %57 = zext i16 %56 to i32
  %58 = and i32 %35, 12
  %59 = icmp eq i32 %58, 0
  %.neg24 = select i1 %59, i32 -32768, i32 0
  %60 = add nsw i32 %.neg24, %57
  %61 = sitofp i32 %60 to double
  store double %61, ptr %53, align 8, !tbaa !34
  %62 = load ptr, ptr %36, align 8, !tbaa !32
  %63 = getelementptr inbounds nuw i8, ptr %62, i64 8
  store ptr %63, ptr %36, align 8, !tbaa !32
  %64 = getelementptr inbounds nuw i8, ptr %29, i64 6
  %65 = load i16, ptr %64, align 2, !tbaa !34
  %66 = uitofp i16 %65 to double
  store double %66, ptr %62, align 8, !tbaa !34
  br label %67

67:                                               ; preds = %jit_checktrace.exit, %21, %25
  %.0 = phi i32 [ 5, %25 ], [ 0, %21 ], [ 0, %jit_checktrace.exit ]
  ret i32 %.0
}